; Function Attrs: mustprogress nounwind uwtable
define hidden void @_ZN8PhaseCFG13set_next_callEP5BlockP4NodeR9VectorSet(ptr nocapture noundef nonnull readonly align 8 dereferenceable(160) %0, ptr noundef %1, ptr nocapture noundef readonly %2, ptr noundef nonnull align 8 dereferenceable(32) %3) local_unnamed_addr #0 align 2 {
  %5 = getelementptr inbounds i8, ptr %2, i64 40
  %6 = load i32, ptr %5, align 8
  %7 = lshr i32 %6, 5
  %8 = load i32, ptr %3, align 8
  %.not.i = icmp ult i32 %7, %8
  br i1 %.not.i, label %_ZN9VectorSet8test_setEj.exit, label %9

9:                                                ; preds = %4
  tail call void @_ZN9VectorSet4growEj(ptr noundef nonnull align 8 dereferenceable(32) %3, i32 noundef %7) #8
  br label %_ZN9VectorSet8test_setEj.exit

_ZN9VectorSet8test_setEj.exit:                    ; preds = %4, %9
  %10 = and i32 %6, 31
  %11 = shl nuw i32 1, %10
  %12 = getelementptr inbounds i8, ptr %3, i64 8
  %13 = load ptr, ptr %12, align 8
  %14 = zext nneg i32 %7 to i64
  %15 = getelementptr inbounds i32, ptr %13, i64 %14
  %16 = load i32, ptr %15, align 4
  %17 = or i32 %16, %11
  store i32 %17, ptr %15, align 4
  %18 = and i32 %16, %11
  %.not15 = icmp eq i32 %18, 0
  br i1 %.not15, label %.preheader, label %.loopexit

.preheader:                                       ; preds = %_ZN9VectorSet8test_setEj.exit
  %19 = getelementptr inbounds i8, ptr %2, i64 28
  %20 = load i32, ptr %19, align 4
  %.not17 = icmp eq i32 %20, 0
  br i1 %.not17, label %.loopexit, label %.lr.ph

.lr.ph:                                           ; preds = %.preheader
  %21 = getelementptr inbounds i8, ptr %2, i64 8
  %22 = getelementptr inbounds i8, ptr %0, i64 120
  br label %23

23:                                               ; preds = %.lr.ph, %37
  %24 = phi i32 [ %20, %.lr.ph ], [ %38, %37 ]
  %indvars.iv = phi i64 [ 0, %.lr.ph ], [ %indvars.iv.next, %37 ]
  %25 = load ptr, ptr %21, align 8
  %26 = getelementptr inbounds ptr, ptr %25, i64 %indvars.iv
  %27 = load ptr, ptr %26, align 8
  %.not = icmp eq ptr %27, null
  br i1 %.not, label %37, label %28

28:                                               ; preds = %23
  %29 = getelementptr inbounds i8, ptr %27, i64 40
  %30 = load i32, ptr %29, align 8
  %31 = load ptr, ptr %22, align 8
  %32 = zext i32 %30 to i64
  %33 = getelementptr inbounds ptr, ptr %31, i64 %32
  %34 = load ptr, ptr %33, align 8
  %35 = icmp eq ptr %34, %1
  br i1 %35, label %36, label %37

36:                                               ; preds = %28
  tail call void @_ZN8PhaseCFG13set_next_callEP5BlockP4NodeR9VectorSet(ptr noundef nonnull align 8 dereferenceable(160) %0, ptr noundef %1, ptr noundef nonnull %27, ptr noundef nonnull align 8 dereferenceable(32) %3)
  %.pre = load i32, ptr %19, align 4
  br label %37

37:                                               ; preds = %28, %36, %23
  %38 = phi i32 [ %24, %28 ], [ %.pre, %36 ], [ %24, %23 ]
  %indvars.iv.next = add nuw nsw i64 %indvars.iv, 1
  %39 = zext i32 %38 to i64
  %40 = icmp ult i64 %indvars.iv.next, %39
  br i1 %40, label %23, label %.loopexit, !llvm.loop !29

.loopexit:                                        ; preds = %37, %.preheader, %_ZN9VectorSet8test_setEj.exit
  ret void
}